target datalayout = "e-m:e-p270:32:32-p271:32:32-p272:64:64-i64:64-i128:128-f80:128-n8:16:32:64-S128"
target triple = "x86_64-pc-linux-gnu"

%"struct.cv::gapi::wip::onevpl::Device" = type <{ %"class.std::__cxx11::basic_string", ptr, i8, [7 x i8] }>
%"class.std::__cxx11::basic_string" = type { %"struct.std::__cxx11::basic_string<char>::_Alloc_hider", i64, %union.anon }
%"struct.std::__cxx11::basic_string<char>::_Alloc_hider" = type { ptr }
%union.anon = type { i64, [8 x i8] }

@.str.4 = private unnamed_addr constant [4 x i8] c"CPU\00", align 1

; Function Attrs: mustprogress uwtable
define linkonce_odr hidden void @_ZN2cv4gapi3wip6onevpl6detail20DeviceContextCreator13create_entityINS2_6DeviceEJDnRA4_KcNS2_9AccelTypeEEEET_DpOT0_(ptr dead_on_unwind noalias writable sret(%"struct.cv::gapi::wip::onevpl::Device") align 8 %0, ptr noundef nonnull align 8 dereferenceable(8) %1, ptr noundef nonnull align 1 dereferenceable(4) %2, ptr noundef nonnull align 1 dereferenceable(1) %3) #0 comdat align 2 {
  %5 = alloca ptr, align 8
  %6 = alloca ptr, align 8
  %7 = alloca ptr, align 8
  %8 = alloca ptr, align 8
  store ptr %0, ptr %5, align 8
  store ptr %1, ptr %6, align 8, !tbaa !39
  store ptr %2, ptr %7, align 8, !tbaa !41
  store ptr %3, ptr %8, align 8, !tbaa !14
  %9 = load ptr, ptr %6, align 8, !tbaa !39
  %10 = load ptr, ptr %7, align 8, !tbaa !41
  %11 = load ptr, ptr %8, align 8, !tbaa !14
  call void @_ZN2cv4gapi3wip6onevpl15IDeviceSelector6createINS2_6DeviceEJDnRA4_KcNS2_9AccelTypeEEEET_DpOT0_(ptr dead_on_unwind writable sret(%"struct.cv::gapi::wip::onevpl::Device") align 8 %0, ptr noundef nonnull align 8 dereferenceable(8) %9, ptr noundef nonnull align 1 dereferenceable(4) %10, ptr noundef nonnull align 1 dereferenceable(1) %11)
  ret void
}

; Function Attrs: mustprogress uwtable
define void @_ZN2cv4gapi3wip6onevpl18create_host_deviceEv(ptr dead_on_unwind noalias writable sret(%"struct.cv::gapi::wip::onevpl::Device") align 8 %0) #0 {
  %2 = alloca ptr, align 8
  %3 = alloca ptr, align 8
  %4 = alloca i8, align 1
  store ptr %0, ptr %2, align 8
  call void @llvm.lifetime.start.p0(i64 8, ptr %3) #13
  store ptr null, ptr %3, align 8, !tbaa !37
  call void @llvm.lifetime.start.p0(i64 1, ptr %4) #13
  store i8 0, ptr %4, align 1, !tbaa !3
  call void @_ZN2cv4gapi3wip6onevpl6detail20DeviceContextCreator13create_entityINS2_6DeviceEJDnRA4_KcNS2_9AccelTypeEEEET_DpOT0_(ptr dead_on_unwind writable sret(%"struct.cv::gapi::wip::onevpl::Device") align 8 %0, ptr noundef nonnull align 8 dereferenceable(8) %3, ptr noundef nonnull align 1 dereferenceable(4) @.str.4, ptr noundef nonnull align 1 dereferenceable(1) %4)
  call void @llvm.lifetime.end.p0(i64 1, ptr %4) #13
  call void @llvm.lifetime.end.p0(i64 8, ptr %3) #13
  ret void
}