; Function Attrs: mustprogress uwtable
define void @_ZN2cv4gapi3wip6onevpl18create_host_deviceEv(ptr dead_on_unwind noalias writable sret(%"struct.cv::gapi::wip::onevpl::Device") align 8 %0) local_unnamed_addr #2 {
  %2 = alloca ptr, align 8
  %3 = alloca i8, align 1
  call void @llvm.lifetime.start.p0(i64 8, ptr nonnull %2) #13
  store ptr null, ptr %2, align 8, !tbaa !25
  call void @llvm.lifetime.start.p0(i64 1, ptr nonnull %3) #13
  store i8 0, ptr %3, align 1, !tbaa !27
  call void @_ZN2cv4gapi3wip6onevpl15IDeviceSelector6createINS2_6DeviceEJDnRA4_KcNS2_9AccelTypeEEEET_DpOT0_(ptr dead_on_unwind writable sret(%"struct.cv::gapi::wip::onevpl::Device") align 8 %0, ptr noundef nonnull align 8 dereferenceable(8) %2, ptr noundef nonnull align 1 dereferenceable(4) @.str.4, ptr noundef nonnull align 1 dereferenceable(1) %3)
  call void @llvm.lifetime.end.p0(i64 1, ptr nonnull %3) #13
  call void @llvm.lifetime.end.p0(i64 8, ptr nonnull %2) #13
  ret void
}